target datalayout = "e-m:e-p270:32:32-p271:32:32-p272:64:64-i64:64-i128:128-f80:128-n8:16:32:64-S128"
target triple = "x86_64-pc-linux-gnu"

%"class.llvm::Target" = type { ptr, ptr, ptr, ptr, ptr, i8, ptr, ptr, ptr, ptr, ptr, ptr, ptr, ptr, ptr, ptr, ptr, ptr, ptr, ptr, ptr, ptr, ptr, ptr, ptr, ptr, ptr, ptr, ptr, ptr, ptr }

@_ZL11FirstTarget = internal global ptr null, align 8

; Function Attrs: mustprogress nounwind uwtable
define dso_local void @_ZN4llvm14TargetRegistry14RegisterTargetERNS_6TargetEPKcS4_S4_PFbNS_6Triple8ArchTypeEEb(ptr noundef nonnull align 8 dereferenceable(248) %0, ptr noundef %1, ptr noundef %2, ptr noundef %3, ptr noundef %4, i1 noundef zeroext %5) #0 align 2 {
  %7 = alloca ptr, align 8
  %8 = alloca ptr, align 8
  %9 = alloca ptr, align 8
  %10 = alloca ptr, align 8
  %11 = alloca ptr, align 8
  %12 = alloca i8, align 1
  store ptr %0, ptr %7, align 8
  store ptr %1, ptr %8, align 8
  store ptr %2, ptr %9, align 8
  store ptr %3, ptr %10, align 8
  store ptr %4, ptr %11, align 8
  %13 = zext i1 %5 to i8
  store i8 %13, ptr %12, align 1
  %14 = load ptr, ptr %7, align 8
  %15 = getelementptr inbounds nuw %"class.llvm::Target", ptr %14, i32 0, i32 2
  %16 = load ptr, ptr %15, align 8
  %17 = icmp ne ptr %16, null
  br i1 %17, label %18, label %19

18:                                               ; preds = %6
  br label %41

19:                                               ; preds = %6
  %20 = load ptr, ptr @_ZL11FirstTarget, align 8
  %21 = load ptr, ptr %7, align 8
  %22 = getelementptr inbounds nuw %"class.llvm::Target", ptr %21, i32 0, i32 0
  store ptr %20, ptr %22, align 8
  %23 = load ptr, ptr %7, align 8
  store ptr %23, ptr @_ZL11FirstTarget, align 8
  %24 = load ptr, ptr %8, align 8
  %25 = load ptr, ptr %7, align 8
  %26 = getelementptr inbounds nuw %"class.llvm::Target", ptr %25, i32 0, i32 2
  store ptr %24, ptr %26, align 8
  %27 = load ptr, ptr %9, align 8
  %28 = load ptr, ptr %7, align 8
  %29 = getelementptr inbounds nuw %"class.llvm::Target", ptr %28, i32 0, i32 3
  store ptr %27, ptr %29, align 8
  %30 = load ptr, ptr %10, align 8
  %31 = load ptr, ptr %7, align 8
  %32 = getelementptr inbounds nuw %"class.llvm::Target", ptr %31, i32 0, i32 4
  store ptr %30, ptr %32, align 8
  %33 = load ptr, ptr %11, align 8
  %34 = load ptr, ptr %7, align 8
  %35 = getelementptr inbounds nuw %"class.llvm::Target", ptr %34, i32 0, i32 1
  store ptr %33, ptr %35, align 8
  %36 = load i8, ptr %12, align 1
  %37 = trunc i8 %36 to i1
  %38 = load ptr, ptr %7, align 8
  %39 = getelementptr inbounds nuw %"class.llvm::Target", ptr %38, i32 0, i32 5
  %40 = zext i1 %37 to i8
  store i8 %40, ptr %39, align 8
  br label %41

41:                                               ; preds = %19, %18
  ret void
}