; Function Attrs: mustprogress nofree norecurse nosync nounwind willreturn memory(readwrite, inaccessiblemem: none) uwtable
define dso_local void @_ZN4llvm14TargetRegistry14RegisterTargetERNS_6TargetEPKcS4_S4_PFbNS_6Triple8ArchTypeEEb(ptr noundef nonnull align 8 dereferenceable(248) %0, ptr noundef %1, ptr noundef %2, ptr noundef %3, ptr noundef %4, i1 noundef zeroext %5) local_unnamed_addr #5 align 2 {
  %7 = getelementptr inbounds nuw i8, ptr %0, i64 16
  %8 = load ptr, ptr %7, align 8
  %.not = icmp eq ptr %8, null
  br i1 %.not, label %9, label %16

9:                                                ; preds = %6
  %10 = zext i1 %5 to i8
  %11 = load ptr, ptr @_ZL11FirstTarget, align 8
  store ptr %11, ptr %0, align 8
  store ptr %0, ptr @_ZL11FirstTarget, align 8
  store ptr %1, ptr %7, align 8
  %12 = getelementptr inbounds nuw i8, ptr %0, i64 24
  store ptr %2, ptr %12, align 8
  %13 = getelementptr inbounds nuw i8, ptr %0, i64 32
  store ptr %3, ptr %13, align 8
  %14 = getelementptr inbounds nuw i8, ptr %0, i64 8
  store ptr %4, ptr %14, align 8
  %15 = getelementptr inbounds nuw i8, ptr %0, i64 40
  store i8 %10, ptr %15, align 8
  br label %16

16:                                               ; preds = %6, %9
  ret void
}